target datalayout = "e-m:e-p270:32:32-p271:32:32-p272:64:64-i64:64-i128:128-f80:128-n8:16:32:64-S128"
target triple = "x86_64-pc-linux-gnu"

%struct.H5FL_reg_head_t = type { i8, i32, i32, ptr, i64, ptr }
%struct.H5VL_t = type { ptr, i64, i64 }

@H5_H5VL_t_reg_free_list = global %struct.H5FL_reg_head_t { i8 0, i32 0, i32 0, ptr @.str, i64 24, ptr null }, align 8
@.str.2 = private unnamed_addr constant [101 x i8] c"generated/home/dtcxzyw/WorkSpace/Projects/compilers/llvm-opt-benchmark/bench/hdf5/hdf5/src/H5VLint.c\00", align 1
@H5E_VOL_g = external global i64, align 8
@H5E_CANTALLOC_g = external global i64, align 8
@H5E_CANTINC_g = external global i64, align 8
@H5E_CANTDEC_g = external global i64, align 8
@H5E_BADTYPE_g = external global i64, align 8
@.str.36 = private unnamed_addr constant [23 x i8] c"not a VOL connector ID\00", align 1
@__func__.H5VL_new_connector = private unnamed_addr constant [19 x i8] c"H5VL_new_connector\00", align 1
@.str.43 = private unnamed_addr constant [36 x i8] c"can't allocate VOL connector struct\00", align 1
@.str.44 = private unnamed_addr constant [47 x i8] c"unable to increment ref count on VOL connector\00", align 1
@.str.45 = private unnamed_addr constant [47 x i8] c"unable to decrement ref count on VOL connector\00", align 1

; Function Attrs: nounwind uwtable
define ptr @H5VL_new_connector(i64 noundef %0) #0 {
  %2 = alloca i64, align 8
  %3 = alloca ptr, align 8
  %4 = alloca ptr, align 8
  %5 = alloca i8, align 1
  %6 = alloca ptr, align 8
  %7 = alloca i8, align 1
  store i64 %0, ptr %2, align 8
  store ptr null, ptr %3, align 8
  store ptr null, ptr %4, align 8
  store i8 0, ptr %5, align 1
  store ptr null, ptr %6, align 8
  store i8 0, ptr %7, align 1
  %8 = load i64, ptr %2, align 8
  %9 = call ptr @H5I_object_verify(i64 noundef %8, i32 noundef 9)
  store ptr %9, ptr %3, align 8
  %10 = icmp eq ptr null, %9
  br i1 %10, label %11, label %26

11:                                               ; preds = %1
  br label %12

12:                                               ; preds = %11
  br label %13

13:                                               ; preds = %12
  br label %14

14:                                               ; preds = %13
  %15 = load i64, ptr @H5E_VOL_g, align 8
  %16 = load i64, ptr @H5E_BADTYPE_g, align 8
  %17 = call i32 (ptr, ptr, i32, i64, i64, ptr, ...) @H5E_printf_stack(ptr noundef @.str.2, ptr noundef @__func__.H5VL_new_connector, i32 noundef 768, i64 noundef %15, i64 noundef %16, ptr noundef @.str.36)
  br label %18

18:                                               ; preds = %14
  store i8 1, ptr %7, align 1
  %19 = load i8, ptr %7, align 1
  %20 = trunc i8 %19 to i1
  %21 = zext i1 %20 to i8
  store i8 %21, ptr %7, align 1
  br label %22

22:                                               ; preds = %18
  br label %23

23:                                               ; preds = %22
  store ptr null, ptr %6, align 8
  br label %73

24:                                               ; No predecessors!
  br label %25

25:                                               ; preds = %24
  br label %26

26:                                               ; preds = %25, %1
  %27 = call noalias ptr @H5FL_reg_calloc(ptr noundef @H5_H5VL_t_reg_free_list)
  store ptr %27, ptr %4, align 8
  %28 = icmp eq ptr null, %27
  br i1 %28, label %29, label %44

29:                                               ; preds = %26
  br label %30

30:                                               ; preds = %29
  br label %31

31:                                               ; preds = %30
  br label %32

32:                                               ; preds = %31
  %33 = load i64, ptr @H5E_VOL_g, align 8
  %34 = load i64, ptr @H5E_CANTALLOC_g, align 8
  %35 = call i32 (ptr, ptr, i32, i64, i64, ptr, ...) @H5E_printf_stack(ptr noundef @.str.2, ptr noundef @__func__.H5VL_new_connector, i32 noundef 772, i64 noundef %33, i64 noundef %34, ptr noundef @.str.43)
  br label %36

36:                                               ; preds = %32
  store i8 1, ptr %7, align 1
  %37 = load i8, ptr %7, align 1
  %38 = trunc i8 %37 to i1
  %39 = zext i1 %38 to i8
  store i8 %39, ptr %7, align 1
  br label %40

40:                                               ; preds = %36
  br label %41

41:                                               ; preds = %40
  store ptr null, ptr %6, align 8
  br label %73

42:                                               ; No predecessors!
  br label %43

43:                                               ; preds = %42
  br label %44

44:                                               ; preds = %43, %26
  %45 = load ptr, ptr %3, align 8
  %46 = load ptr, ptr %4, align 8
  %47 = getelementptr inbounds %struct.H5VL_t, ptr %46, i32 0, i32 0
  store ptr %45, ptr %47, align 8
  %48 = load i64, ptr %2, align 8
  %49 = load ptr, ptr %4, align 8
  %50 = getelementptr inbounds %struct.H5VL_t, ptr %49, i32 0, i32 2
  store i64 %48, ptr %50, align 8
  %51 = load ptr, ptr %4, align 8
  %52 = getelementptr inbounds %struct.H5VL_t, ptr %51, i32 0, i32 2
  %53 = load i64, ptr %52, align 8
  %54 = call i32 @H5I_inc_ref(i64 noundef %53, i1 noundef zeroext false)
  %55 = icmp slt i32 %54, 0
  br i1 %55, label %56, label %71

56:                                               ; preds = %44
  br label %57

57:                                               ; preds = %56
  br label %58

58:                                               ; preds = %57
  br label %59

59:                                               ; preds = %58
  %60 = load i64, ptr @H5E_VOL_g, align 8
  %61 = load i64, ptr @H5E_CANTINC_g, align 8
  %62 = call i32 (ptr, ptr, i32, i64, i64, ptr, ...) @H5E_printf_stack(ptr noundef @.str.2, ptr noundef @__func__.H5VL_new_connector, i32 noundef 776, i64 noundef %60, i64 noundef %61, ptr noundef @.str.44)
  br label %63

63:                                               ; preds = %59
  store i8 1, ptr %7, align 1
  %64 = load i8, ptr %7, align 1
  %65 = trunc i8 %64 to i1
  %66 = zext i1 %65 to i8
  store i8 %66, ptr %7, align 1
  br label %67

67:                                               ; preds = %63
  br label %68

68:                                               ; preds = %67
  store ptr null, ptr %6, align 8
  br label %73

69:                                               ; No predecessors!
  br label %70

70:                                               ; preds = %69
  br label %71

71:                                               ; preds = %70, %44
  store i8 1, ptr %5, align 1
  %72 = load ptr, ptr %4, align 8
  store ptr %72, ptr %6, align 8
  br label %73

73:                                               ; preds = %71, %68, %41, %23
  %74 = load ptr, ptr %6, align 8
  %75 = icmp eq ptr null, %74
  br i1 %75, label %76, label %103

76:                                               ; preds = %73
  %77 = load i8, ptr %5, align 1
  %78 = trunc i8 %77 to i1
  br i1 %78, label %79, label %96

79:                                               ; preds = %76
  %80 = load i64, ptr %2, align 8
  %81 = call i32 @H5I_dec_ref(i64 noundef %80)
  %82 = icmp slt i32 %81, 0
  br i1 %82, label %83, label %96

83:                                               ; preds = %79
  br label %84

84:                                               ; preds = %83
  br label %85

85:                                               ; preds = %84
  br label %86

86:                                               ; preds = %85
  %87 = load i64, ptr @H5E_VOL_g, align 8
  %88 = load i64, ptr @H5E_CANTDEC_g, align 8
  %89 = call i32 (ptr, ptr, i32, i64, i64, ptr, ...) @H5E_printf_stack(ptr noundef @.str.2, ptr noundef @__func__.H5VL_new_connector, i32 noundef 787, i64 noundef %87, i64 noundef %88, ptr noundef @.str.45)
  br label %90

90:                                               ; preds = %86
  store i8 1, ptr %7, align 1
  %91 = load i8, ptr %7, align 1
  %92 = trunc i8 %91 to i1
  %93 = zext i1 %92 to i8
  store i8 %93, ptr %7, align 1
  br label %94

94:                                               ; preds = %90
  store ptr null, ptr %6, align 8
  br label %95

95:                                               ; preds = %94
  br label %96

96:                                               ; preds = %95, %79, %76
  %97 = load ptr, ptr %4, align 8
  %98 = icmp ne ptr null, %97
  br i1 %98, label %99, label %102

99:                                               ; preds = %96
  %100 = load ptr, ptr %4, align 8
  %101 = call ptr @H5FL_reg_free(ptr noundef @H5_H5VL_t_reg_free_list, ptr noundef %100)
  store ptr %101, ptr %4, align 8
  br label %102

102:                                              ; preds = %99, %96
  br label %103

103:                                              ; preds = %102, %73
  %104 = load ptr, ptr %6, align 8
  ret ptr %104
}