; Function Attrs: nounwind uwtable
define ptr @H5VL_new_connector(i64 noundef %0) local_unnamed_addr #0 {
  %2 = tail call ptr @H5I_object_verify(i64 noundef %0, i32 noundef 9) #10
  %3 = icmp eq ptr %2, null
  br i1 %3, label %4, label %8

4:                                                ; preds = %1
  %5 = load i64, ptr @H5E_VOL_g, align 8
  %6 = load i64, ptr @H5E_BADTYPE_g, align 8
  %7 = tail call i32 (ptr, ptr, i32, i64, i64, ptr, ...) @H5E_printf_stack(ptr noundef nonnull @.str.2, ptr noundef nonnull @__func__.H5VL_new_connector, i32 noundef 768, i64 noundef %5, i64 noundef %6, ptr noundef nonnull @.str.36) #10
  br label %.thread27

8:                                                ; preds = %1
  %9 = tail call noalias ptr @H5FL_reg_calloc(ptr noundef nonnull @H5_H5VL_t_reg_free_list) #10
  %10 = icmp eq ptr %9, null
  br i1 %10, label %11, label %15

11:                                               ; preds = %8
  %12 = load i64, ptr @H5E_VOL_g, align 8
  %13 = load i64, ptr @H5E_CANTALLOC_g, align 8
  %14 = tail call i32 (ptr, ptr, i32, i64, i64, ptr, ...) @H5E_printf_stack(ptr noundef nonnull @.str.2, ptr noundef nonnull @__func__.H5VL_new_connector, i32 noundef 772, i64 noundef %12, i64 noundef %13, ptr noundef nonnull @.str.43) #10
  br label %.thread27

15:                                               ; preds = %8
  store ptr %2, ptr %9, align 8
  %16 = getelementptr inbounds i8, ptr %9, i64 16
  store i64 %0, ptr %16, align 8
  %17 = tail call i32 @H5I_inc_ref(i64 noundef %0, i1 noundef zeroext false) #10
  %18 = icmp slt i32 %17, 0
  br i1 %18, label %19, label %.thread27

19:                                               ; preds = %15
  %20 = load i64, ptr @H5E_VOL_g, align 8
  %21 = load i64, ptr @H5E_CANTINC_g, align 8
  %22 = tail call i32 (ptr, ptr, i32, i64, i64, ptr, ...) @H5E_printf_stack(ptr noundef nonnull @.str.2, ptr noundef nonnull @__func__.H5VL_new_connector, i32 noundef 776, i64 noundef %20, i64 noundef %21, ptr noundef nonnull @.str.44) #10
  %23 = tail call ptr @H5FL_reg_free(ptr noundef nonnull @H5_H5VL_t_reg_free_list, ptr noundef nonnull %9) #10
  br label %.thread27

.thread27:                                        ; preds = %4, %11, %15, %19
  %.2 = phi ptr [ null, %19 ], [ %9, %15 ], [ null, %11 ], [ null, %4 ]
  ret ptr %.2
}